; Function Attrs: nounwind uwtable
define dso_local ptr @getTocEntryByDumpId(ptr noundef captures(none) %0, i32 noundef %1) local_unnamed_addr #0 {
  %3 = getelementptr inbounds nuw i8, ptr %0, i64 520
  %4 = load ptr, ptr %3, align 8
  %5 = icmp eq ptr %4, null
  br i1 %5, label %6, label %7

6:                                                ; preds = %2
  tail call fastcc void @buildTocEntryArrays(ptr noundef nonnull %0)
  br label %7

7:                                                ; preds = %6, %2
  %8 = icmp sgt i32 %1, 0
  br i1 %8, label %9, label %17

9:                                                ; preds = %7
  %10 = getelementptr inbounds nuw i8, ptr %0, i64 516
  %11 = load i32, ptr %10, align 4
  %.not = icmp sgt i32 %1, %11
  br i1 %.not, label %17, label %12

12:                                               ; preds = %9
  %13 = load ptr, ptr %3, align 8
  %14 = zext nneg i32 %1 to i64
  %15 = getelementptr inbounds nuw ptr, ptr %13, i64 %14
  %16 = load ptr, ptr %15, align 8
  br label %17

17:                                               ; preds = %7, %9, %12
  %.0 = phi ptr [ %16, %12 ], [ null, %9 ], [ null, %7 ]
  ret ptr %.0
}